target datalayout = "e-m:e-p270:32:32-p271:32:32-p272:64:64-i64:64-i128:128-f80:128-n8:16:32:64-S128"
target triple = "x86_64-pc-linux-gnu"

%"class.(anonymous namespace)::itanium_demangle::OutputBuffer" = type <{ ptr, ptr, i64, i64, i32, i32, i32, [4 x i8] }>
%"class.std::__1::basic_string_view" = type { ptr, i64 }
%"class.(anonymous namespace)::itanium_demangle::NodeArray" = type { ptr, i64 }
%"class.(anonymous namespace)::itanium_demangle::Node.base" = type <{ ptr, i8, i16 }>
%"class.(anonymous namespace)::itanium_demangle::TemplateArgs" = type { %"class.(anonymous namespace)::itanium_demangle::Node.base", %"class.(anonymous namespace)::itanium_demangle::NodeArray", ptr }
%"class.(anonymous namespace)::itanium_demangle::ScopedOverride.7" = type <{ ptr, i32, [4 x i8] }>

@.str.247 = private unnamed_addr constant [2 x i8] c">\00", align 1
@.str.255 = private unnamed_addr constant [2 x i8] c"<\00", align 1

; Function Attrs: inlinehint mustprogress nounwind uwtable
define linkonce_odr hidden noundef i64 @_ZNSt3__118__constexpr_strlenB8ne210000IcEEmPKT_(ptr noundef %0) #2 comdat {
  %2 = alloca ptr, align 8
  store ptr %0, ptr %2, align 8, !tbaa !194
  %3 = load ptr, ptr %2, align 8, !tbaa !194
  %4 = call i64 @strlen(ptr noundef %3) #19
  ret i64 %4
}

; Function Attrs: mustprogress nounwind uwtable
define linkonce_odr hidden noundef ptr @_ZNKSt3__117basic_string_viewIcNS_11char_traitsIcEEE6cbeginB8ne210000Ev(ptr noundef nonnull align 8 dereferenceable(16) %0) #6 comdat align 2 {
  %2 = alloca ptr, align 8
  store ptr %0, ptr %2, align 8, !tbaa !475
  %3 = load ptr, ptr %2, align 8
  %4 = getelementptr inbounds nuw %"class.std::__1::basic_string_view", ptr %3, i32 0, i32 0
  %5 = load ptr, ptr %4, align 8, !tbaa !478
  ret ptr %5
}

; Function Attrs: inlinehint mustprogress nounwind uwtable
define linkonce_odr hidden noundef i64 @_ZNSt3__111char_traitsIcE6lengthB8ne210000EPKc(ptr noundef %0) #2 comdat align 2 {
  %2 = alloca ptr, align 8
  store ptr %0, ptr %2, align 8, !tbaa !194
  %3 = load ptr, ptr %2, align 8, !tbaa !194
  %4 = call noundef i64 @_ZNSt3__118__constexpr_strlenB8ne210000IcEEmPKT_(ptr noundef %3) #19
  ret i64 %4
}

; Function Attrs: mustprogress nounwind uwtable
define linkonce_odr hidden noundef ptr @_ZNKSt3__117basic_string_viewIcNS_11char_traitsIcEEE5beginB8ne210000Ev(ptr noundef nonnull align 8 dereferenceable(16) %0) #6 comdat align 2 {
  %2 = alloca ptr, align 8
  store ptr %0, ptr %2, align 8, !tbaa !475
  %3 = load ptr, ptr %2, align 8
  %4 = call noundef ptr @_ZNKSt3__117basic_string_viewIcNS_11char_traitsIcEEE6cbeginB8ne210000Ev(ptr noundef nonnull align 8 dereferenceable(16) %3) #19
  ret ptr %4
}

; Function Attrs: mustprogress nounwind uwtable
define internal void @_ZN12_GLOBAL__N_116itanium_demangle12OutputBuffer4growEm(ptr noundef nonnull align 8 dereferenceable(44) %0, i64 noundef %1) #6 align 2 {
  %3 = alloca ptr, align 8
  %4 = alloca i64, align 8
  %5 = alloca i64, align 8
  store ptr %0, ptr %3, align 8, !tbaa !226
  store i64 %1, ptr %4, align 8, !tbaa !203
  %6 = load ptr, ptr %3, align 8
  call void @llvm.lifetime.start.p0(i64 8, ptr %5) #19
  %7 = load i64, ptr %4, align 8, !tbaa !203
  %8 = getelementptr inbounds nuw %"class.(anonymous namespace)::itanium_demangle::OutputBuffer", ptr %6, i32 0, i32 2
  %9 = load i64, ptr %8, align 8, !tbaa !237
  %10 = add i64 %7, %9
  store i64 %10, ptr %5, align 8, !tbaa !203
  %11 = load i64, ptr %5, align 8, !tbaa !203
  %12 = getelementptr inbounds nuw %"class.(anonymous namespace)::itanium_demangle::OutputBuffer", ptr %6, i32 0, i32 3
  %13 = load i64, ptr %12, align 8, !tbaa !272
  %14 = icmp ugt i64 %11, %13
  br i1 %14, label %15, label %40

15:                                               ; preds = %2
  %16 = load i64, ptr %5, align 8, !tbaa !203
  %17 = add i64 %16, 992
  store i64 %17, ptr %5, align 8, !tbaa !203
  %18 = getelementptr inbounds nuw %"class.(anonymous namespace)::itanium_demangle::OutputBuffer", ptr %6, i32 0, i32 3
  %19 = load i64, ptr %18, align 8, !tbaa !272
  %20 = mul i64 %19, 2
  store i64 %20, ptr %18, align 8, !tbaa !272
  %21 = getelementptr inbounds nuw %"class.(anonymous namespace)::itanium_demangle::OutputBuffer", ptr %6, i32 0, i32 3
  %22 = load i64, ptr %21, align 8, !tbaa !272
  %23 = load i64, ptr %5, align 8, !tbaa !203
  %24 = icmp ult i64 %22, %23
  br i1 %24, label %25, label %28

25:                                               ; preds = %15
  %26 = load i64, ptr %5, align 8, !tbaa !203
  %27 = getelementptr inbounds nuw %"class.(anonymous namespace)::itanium_demangle::OutputBuffer", ptr %6, i32 0, i32 3
  store i64 %26, ptr %27, align 8, !tbaa !272
  br label %28

28:                                               ; preds = %25, %15
  %29 = getelementptr inbounds nuw %"class.(anonymous namespace)::itanium_demangle::OutputBuffer", ptr %6, i32 0, i32 1
  %30 = load ptr, ptr %29, align 8, !tbaa !235
  %31 = getelementptr inbounds nuw %"class.(anonymous namespace)::itanium_demangle::OutputBuffer", ptr %6, i32 0, i32 3
  %32 = load i64, ptr %31, align 8, !tbaa !272
  %33 = call ptr @realloc(ptr noundef %30, i64 noundef %32) #24
  %34 = getelementptr inbounds nuw %"class.(anonymous namespace)::itanium_demangle::OutputBuffer", ptr %6, i32 0, i32 1
  store ptr %33, ptr %34, align 8, !tbaa !235
  %35 = getelementptr inbounds nuw %"class.(anonymous namespace)::itanium_demangle::OutputBuffer", ptr %6, i32 0, i32 1
  %36 = load ptr, ptr %35, align 8, !tbaa !235
  %37 = icmp eq ptr %36, null
  br i1 %37, label %38, label %39

38:                                               ; preds = %28
  call void @abort() #22
  unreachable

39:                                               ; preds = %28
  br label %40

40:                                               ; preds = %39, %2
  call void @llvm.lifetime.end.p0(i64 8, ptr %5) #19
  ret void
}

; Function Attrs: mustprogress nounwind uwtable
define linkonce_odr hidden noundef i64 @_ZNKSt3__117basic_string_viewIcNS_11char_traitsIcEEE4sizeB8ne210000Ev(ptr noundef nonnull align 8 dereferenceable(16) %0) #6 comdat align 2 {
  %2 = alloca ptr, align 8
  store ptr %0, ptr %2, align 8, !tbaa !475
  %3 = load ptr, ptr %2, align 8
  %4 = getelementptr inbounds nuw %"class.std::__1::basic_string_view", ptr %3, i32 0, i32 1
  %5 = load i64, ptr %4, align 8, !tbaa !477
  ret i64 %5
}

; Function Attrs: inlinehint mustprogress nounwind uwtable
define linkonce_odr hidden noundef i64 @_ZNSt3__128__char_traits_length_checkedB8ne210000INS_11char_traitsIcEEEEmPKNT_9char_typeE(ptr noundef %0) #2 comdat {
  %2 = alloca ptr, align 8
  store ptr %0, ptr %2, align 8, !tbaa !194
  %3 = load ptr, ptr %2, align 8, !tbaa !194
  %4 = call noundef i64 @_ZNSt3__111char_traitsIcE6lengthB8ne210000EPKc(ptr noundef %3) #19
  ret i64 %4
}

; Function Attrs: mustprogress nounwind uwtable
define internal void @_ZN12_GLOBAL__N_116itanium_demangle14ScopedOverrideIjED2Ev(ptr noundef nonnull align 8 dereferenceable(12) %0) unnamed_addr #6 align 2 {
  %2 = alloca ptr, align 8
  store ptr %0, ptr %2, align 8, !tbaa !775
  %3 = load ptr, ptr %2, align 8
  %4 = getelementptr inbounds nuw %"class.(anonymous namespace)::itanium_demangle::ScopedOverride.7", ptr %3, i32 0, i32 1
  %5 = load i32, ptr %4, align 4, !tbaa !196
  %6 = getelementptr inbounds nuw %"class.(anonymous namespace)::itanium_demangle::ScopedOverride.7", ptr %3, i32 0, i32 0
  %7 = load ptr, ptr %6, align 8, !tbaa !779
  store i32 %5, ptr %7, align 4, !tbaa !196
  ret void
}

; Function Attrs: mustprogress nounwind uwtable
define internal noundef nonnull align 8 dereferenceable(44) ptr @_ZN12_GLOBAL__N_116itanium_demangle12OutputBufferpLENSt3__117basic_string_viewIcNS2_11char_traitsIcEEEE(ptr noundef nonnull align 8 dereferenceable(44) %0, ptr %1, i64 %2) #6 align 2 {
  %4 = alloca %"class.std::__1::basic_string_view", align 8
  %5 = alloca ptr, align 8
  %6 = alloca i64, align 8
  %7 = getelementptr inbounds nuw { ptr, i64 }, ptr %4, i32 0, i32 0
  store ptr %1, ptr %7, align 8
  %8 = getelementptr inbounds nuw { ptr, i64 }, ptr %4, i32 0, i32 1
  store i64 %2, ptr %8, align 8
  store ptr %0, ptr %5, align 8, !tbaa !226
  %9 = load ptr, ptr %5, align 8
  call void @llvm.lifetime.start.p0(i64 8, ptr %6) #19
  %10 = call noundef i64 @_ZNKSt3__117basic_string_viewIcNS_11char_traitsIcEEE4sizeB8ne210000Ev(ptr noundef nonnull align 8 dereferenceable(16) %4) #19
  store i64 %10, ptr %6, align 8, !tbaa !203
  %11 = load i64, ptr %6, align 8, !tbaa !203
  %12 = icmp ne i64 %11, 0
  br i1 %12, label %13, label %26

13:                                               ; preds = %3
  %14 = load i64, ptr %6, align 8, !tbaa !203
  call void @_ZN12_GLOBAL__N_116itanium_demangle12OutputBuffer4growEm(ptr noundef nonnull align 8 dereferenceable(44) %9, i64 noundef %14)
  %15 = getelementptr inbounds nuw %"class.(anonymous namespace)::itanium_demangle::OutputBuffer", ptr %9, i32 0, i32 1
  %16 = load ptr, ptr %15, align 8, !tbaa !235
  %17 = getelementptr inbounds nuw %"class.(anonymous namespace)::itanium_demangle::OutputBuffer", ptr %9, i32 0, i32 2
  %18 = load i64, ptr %17, align 8, !tbaa !237
  %19 = getelementptr inbounds nuw i8, ptr %16, i64 %18
  %20 = call noundef ptr @_ZNKSt3__117basic_string_viewIcNS_11char_traitsIcEEE5beginB8ne210000Ev(ptr noundef nonnull align 8 dereferenceable(16) %4) #19
  %21 = load i64, ptr %6, align 8, !tbaa !203
  call void @llvm.memcpy.p0.p0.i64(ptr align 1 %19, ptr align 1 %20, i64 %21, i1 false)
  %22 = load i64, ptr %6, align 8, !tbaa !203
  %23 = getelementptr inbounds nuw %"class.(anonymous namespace)::itanium_demangle::OutputBuffer", ptr %9, i32 0, i32 2
  %24 = load i64, ptr %23, align 8, !tbaa !237
  %25 = add i64 %24, %22
  store i64 %25, ptr %23, align 8, !tbaa !237
  br label %26

26:                                               ; preds = %13, %3
  call void @llvm.lifetime.end.p0(i64 8, ptr %6) #19
  ret ptr %9
}

; Function Attrs: mustprogress nounwind uwtable
define linkonce_odr hidden void @_ZNSt3__117basic_string_viewIcNS_11char_traitsIcEEEC2B8ne210000EPKc(ptr noundef nonnull align 8 dereferenceable(16) %0, ptr noundef %1) unnamed_addr #6 comdat align 2 {
  %3 = alloca ptr, align 8
  %4 = alloca ptr, align 8
  store ptr %0, ptr %3, align 8, !tbaa !475
  store ptr %1, ptr %4, align 8, !tbaa !194
  %5 = load ptr, ptr %3, align 8
  %6 = getelementptr inbounds nuw %"class.std::__1::basic_string_view", ptr %5, i32 0, i32 0
  %7 = load ptr, ptr %4, align 8, !tbaa !194
  store ptr %7, ptr %6, align 8, !tbaa !478
  %8 = getelementptr inbounds nuw %"class.std::__1::basic_string_view", ptr %5, i32 0, i32 1
  %9 = load ptr, ptr %4, align 8, !tbaa !194
  %10 = call noundef i64 @_ZNSt3__128__char_traits_length_checkedB8ne210000INS_11char_traitsIcEEEEmPKNT_9char_typeE(ptr noundef %9) #19
  store i64 %10, ptr %8, align 8, !tbaa !477
  ret void
}

; Function Attrs: mustprogress nounwind uwtable
define internal void @_ZN12_GLOBAL__N_116itanium_demangle14ScopedOverrideIjEC2ERjj(ptr noundef nonnull align 8 dereferenceable(12) %0, ptr noundef nonnull align 4 dereferenceable(4) %1, i32 noundef %2) unnamed_addr #6 align 2 {
  %4 = alloca ptr, align 8
  %5 = alloca ptr, align 8
  %6 = alloca i32, align 4
  store ptr %0, ptr %4, align 8, !tbaa !775
  store ptr %1, ptr %5, align 8, !tbaa !201
  store i32 %2, ptr %6, align 4, !tbaa !196
  %7 = load ptr, ptr %4, align 8
  %8 = getelementptr inbounds nuw %"class.(anonymous namespace)::itanium_demangle::ScopedOverride.7", ptr %7, i32 0, i32 0
  %9 = load ptr, ptr %5, align 8, !tbaa !201
  store ptr %9, ptr %8, align 8, !tbaa !201
  %10 = getelementptr inbounds nuw %"class.(anonymous namespace)::itanium_demangle::ScopedOverride.7", ptr %7, i32 0, i32 1
  %11 = load ptr, ptr %5, align 8, !tbaa !201
  %12 = load i32, ptr %11, align 4, !tbaa !196
  store i32 %12, ptr %10, align 8, !tbaa !777
  %13 = load i32, ptr %6, align 4, !tbaa !196
  %14 = load ptr, ptr %5, align 8, !tbaa !201
  store i32 %13, ptr %14, align 4, !tbaa !196
  ret void
}

; Function Attrs: mustprogress uwtable
define internal void @_ZNK12_GLOBAL__N_116itanium_demangle12TemplateArgs9printLeftERNS0_12OutputBufferE(ptr noundef nonnull align 8 dereferenceable(40) %0, ptr noundef nonnull align 8 dereferenceable(44) %1) unnamed_addr #3 align 2 personality ptr @__gxx_personality_v0 {
  %3 = alloca ptr, align 8
  %4 = alloca ptr, align 8
  %5 = alloca %"class.(anonymous namespace)::itanium_demangle::ScopedOverride.7", align 8
  %6 = alloca %"class.std::__1::basic_string_view", align 8
  %7 = alloca ptr, align 8
  %8 = alloca i32, align 4
  %9 = alloca %"class.std::__1::basic_string_view", align 8
  store ptr %0, ptr %3, align 8, !tbaa !104
  store ptr %1, ptr %4, align 8, !tbaa !226
  %10 = load ptr, ptr %3, align 8
  call void @llvm.lifetime.start.p0(i64 16, ptr %5) #19
  %11 = load ptr, ptr %4, align 8, !tbaa !226
  %12 = getelementptr inbounds nuw %"class.(anonymous namespace)::itanium_demangle::OutputBuffer", ptr %11, i32 0, i32 6
  call void @_ZN12_GLOBAL__N_116itanium_demangle14ScopedOverrideIjEC2ERjj(ptr noundef nonnull align 8 dereferenceable(12) %5, ptr noundef nonnull align 4 dereferenceable(4) %12, i32 noundef 0)
  invoke void @_ZNSt3__117basic_string_viewIcNS_11char_traitsIcEEEC2B8ne210000EPKc(ptr noundef nonnull align 8 dereferenceable(16) %6, ptr noundef @.str.255)
          to label %13 unwind label %30

13:                                               ; preds = %2
  %14 = load ptr, ptr %4, align 8, !tbaa !226
  %15 = getelementptr inbounds nuw { ptr, i64 }, ptr %6, i32 0, i32 0
  %16 = load ptr, ptr %15, align 8
  %17 = getelementptr inbounds nuw { ptr, i64 }, ptr %6, i32 0, i32 1
  %18 = load i64, ptr %17, align 8
  %19 = call noundef nonnull align 8 dereferenceable(44) ptr @_ZN12_GLOBAL__N_116itanium_demangle12OutputBufferpLENSt3__117basic_string_viewIcNS2_11char_traitsIcEEEE(ptr noundef nonnull align 8 dereferenceable(44) %14, ptr %16, i64 %18)
  %20 = getelementptr inbounds nuw %"class.(anonymous namespace)::itanium_demangle::TemplateArgs", ptr %10, i32 0, i32 1
  %21 = load ptr, ptr %4, align 8, !tbaa !226
  invoke void @_ZNK12_GLOBAL__N_116itanium_demangle9NodeArray14printWithCommaERNS0_12OutputBufferE(ptr noundef nonnull align 8 dereferenceable(16) %20, ptr noundef nonnull align 8 dereferenceable(44) %21)
          to label %22 unwind label %30

22:                                               ; preds = %13
  invoke void @_ZNSt3__117basic_string_viewIcNS_11char_traitsIcEEEC2B8ne210000EPKc(ptr noundef nonnull align 8 dereferenceable(16) %9, ptr noundef @.str.247)
          to label %23 unwind label %30

23:                                               ; preds = %22
  %24 = load ptr, ptr %4, align 8, !tbaa !226
  %25 = getelementptr inbounds nuw { ptr, i64 }, ptr %9, i32 0, i32 0
  %26 = load ptr, ptr %25, align 8
  %27 = getelementptr inbounds nuw { ptr, i64 }, ptr %9, i32 0, i32 1
  %28 = load i64, ptr %27, align 8
  %29 = call noundef nonnull align 8 dereferenceable(44) ptr @_ZN12_GLOBAL__N_116itanium_demangle12OutputBufferpLENSt3__117basic_string_viewIcNS2_11char_traitsIcEEEE(ptr noundef nonnull align 8 dereferenceable(44) %24, ptr %26, i64 %28)
  call void @_ZN12_GLOBAL__N_116itanium_demangle14ScopedOverrideIjED2Ev(ptr noundef nonnull align 8 dereferenceable(12) %5) #19
  call void @llvm.lifetime.end.p0(i64 16, ptr %5) #19
  ret void

30:                                               ; preds = %22, %13, %2
  %31 = landingpad { ptr, i32 }
          cleanup
  %32 = extractvalue { ptr, i32 } %31, 0
  store ptr %32, ptr %7, align 8
  %33 = extractvalue { ptr, i32 } %31, 1
  store i32 %33, ptr %8, align 4
  call void @_ZN12_GLOBAL__N_116itanium_demangle14ScopedOverrideIjED2Ev(ptr noundef nonnull align 8 dereferenceable(12) %5) #19
  call void @llvm.lifetime.end.p0(i64 16, ptr %5) #19
  br label %34

34:                                               ; preds = %30
  %35 = load ptr, ptr %7, align 8
  %36 = load i32, ptr %8, align 4
  %37 = insertvalue { ptr, i32 } poison, ptr %35, 0
  %38 = insertvalue { ptr, i32 } %37, i32 %36, 1
  resume { ptr, i32 } %38
}